target datalayout = "e-m:e-p270:32:32-p271:32:32-p272:64:64-i64:64-i128:128-f80:128-n8:16:32:64-S128"
target triple = "x86_64-pc-linux-gnu"

%struct.SDL_HIDAPI_DeviceDriver = type { ptr, i8, ptr, ptr, ptr, ptr, ptr, ptr, ptr, ptr, ptr, ptr, ptr, ptr, ptr, ptr, ptr, ptr, ptr }
%struct.SDL_AtomicInt = type { i32 }
%struct.SDL_HIDAPI_Device = type { ptr, ptr, ptr, ptr, i16, i16, i16, ptr, %struct.SDL_GUID, i32, i32, i32, i32, i16, i16, i8, i32, i32, i32, ptr, ptr, ptr, ptr, %struct.SDL_AtomicInt, i32, ptr, i8, i8, i8, ptr, i32, ptr, ptr }
%struct.SDL_GUID = type { [16 x i8] }

@.str.7 = private unnamed_addr constant [26 x i8] c"SDL.joystick.cap.mono_led\00", align 1
@.str.8 = private unnamed_addr constant [25 x i8] c"SDL.joystick.cap.rgb_led\00", align 1
@.str.9 = private unnamed_addr constant [28 x i8] c"SDL.joystick.cap.player_led\00", align 1
@.str.10 = private unnamed_addr constant [24 x i8] c"SDL.joystick.cap.rumble\00", align 1
@.str.11 = private unnamed_addr constant [32 x i8] c"SDL.joystick.cap.trigger_rumble\00", align 1

; Function Attrs: nounwind uwtable
define internal void @HIDAPI_UpdateJoystickProperties(ptr noundef %0, ptr noundef %1) #0 {
  %3 = alloca ptr, align 8
  %4 = alloca ptr, align 8
  %5 = alloca i32, align 4
  %6 = alloca i32, align 4
  store ptr %0, ptr %3, align 8
  store ptr %1, ptr %4, align 8
  call void @llvm.lifetime.start.p0(i64 4, ptr %5) #7
  %7 = load ptr, ptr %4, align 8
  %8 = call i32 @SDL_GetJoystickProperties_REAL(ptr noundef %7)
  store i32 %8, ptr %5, align 4
  call void @llvm.lifetime.start.p0(i64 4, ptr %6) #7
  %9 = load ptr, ptr %3, align 8
  %10 = getelementptr inbounds nuw %struct.SDL_HIDAPI_Device, ptr %9, i32 0, i32 19
  %11 = load ptr, ptr %10, align 8
  %12 = getelementptr inbounds nuw %struct.SDL_HIDAPI_DeviceDriver, ptr %11, i32 0, i32 13
  %13 = load ptr, ptr %12, align 8
  %14 = load ptr, ptr %3, align 8
  %15 = load ptr, ptr %4, align 8
  %16 = call i32 %13(ptr noundef %14, ptr noundef %15)
  store i32 %16, ptr %6, align 4
  %17 = load i32, ptr %6, align 4
  %18 = and i32 %17, 1
  %19 = icmp ne i32 %18, 0
  br i1 %19, label %20, label %23

20:                                               ; preds = %2
  %21 = load i32, ptr %5, align 4
  %22 = call zeroext i1 @SDL_SetBooleanProperty_REAL(i32 noundef %21, ptr noundef @.str.7, i1 noundef zeroext true)
  br label %26

23:                                               ; preds = %2
  %24 = load i32, ptr %5, align 4
  %25 = call zeroext i1 @SDL_SetBooleanProperty_REAL(i32 noundef %24, ptr noundef @.str.7, i1 noundef zeroext false)
  br label %26

26:                                               ; preds = %23, %20
  %27 = load i32, ptr %6, align 4
  %28 = and i32 %27, 2
  %29 = icmp ne i32 %28, 0
  br i1 %29, label %30, label %33

30:                                               ; preds = %26
  %31 = load i32, ptr %5, align 4
  %32 = call zeroext i1 @SDL_SetBooleanProperty_REAL(i32 noundef %31, ptr noundef @.str.8, i1 noundef zeroext true)
  br label %36

33:                                               ; preds = %26
  %34 = load i32, ptr %5, align 4
  %35 = call zeroext i1 @SDL_SetBooleanProperty_REAL(i32 noundef %34, ptr noundef @.str.8, i1 noundef zeroext false)
  br label %36

36:                                               ; preds = %33, %30
  %37 = load i32, ptr %6, align 4
  %38 = and i32 %37, 4
  %39 = icmp ne i32 %38, 0
  br i1 %39, label %40, label %43

40:                                               ; preds = %36
  %41 = load i32, ptr %5, align 4
  %42 = call zeroext i1 @SDL_SetBooleanProperty_REAL(i32 noundef %41, ptr noundef @.str.9, i1 noundef zeroext true)
  br label %46

43:                                               ; preds = %36
  %44 = load i32, ptr %5, align 4
  %45 = call zeroext i1 @SDL_SetBooleanProperty_REAL(i32 noundef %44, ptr noundef @.str.9, i1 noundef zeroext false)
  br label %46

46:                                               ; preds = %43, %40
  %47 = load i32, ptr %6, align 4
  %48 = and i32 %47, 16
  %49 = icmp ne i32 %48, 0
  br i1 %49, label %50, label %53

50:                                               ; preds = %46
  %51 = load i32, ptr %5, align 4
  %52 = call zeroext i1 @SDL_SetBooleanProperty_REAL(i32 noundef %51, ptr noundef @.str.10, i1 noundef zeroext true)
  br label %56

53:                                               ; preds = %46
  %54 = load i32, ptr %5, align 4
  %55 = call zeroext i1 @SDL_SetBooleanProperty_REAL(i32 noundef %54, ptr noundef @.str.10, i1 noundef zeroext false)
  br label %56

56:                                               ; preds = %53, %50
  %57 = load i32, ptr %6, align 4
  %58 = and i32 %57, 32
  %59 = icmp ne i32 %58, 0
  br i1 %59, label %60, label %63

60:                                               ; preds = %56
  %61 = load i32, ptr %5, align 4
  %62 = call zeroext i1 @SDL_SetBooleanProperty_REAL(i32 noundef %61, ptr noundef @.str.11, i1 noundef zeroext true)
  br label %66

63:                                               ; preds = %56
  %64 = load i32, ptr %5, align 4
  %65 = call zeroext i1 @SDL_SetBooleanProperty_REAL(i32 noundef %64, ptr noundef @.str.11, i1 noundef zeroext false)
  br label %66

66:                                               ; preds = %63, %60
  call void @llvm.lifetime.end.p0(i64 4, ptr %6) #7
  call void @llvm.lifetime.end.p0(i64 4, ptr %5) #7
  ret void
}

; Function Attrs: nounwind uwtable
define hidden void @HIDAPI_UpdateDeviceProperties(ptr noundef %0) #0 {
  %2 = alloca ptr, align 8
  %3 = alloca i32, align 4
  %4 = alloca ptr, align 8
  store ptr %0, ptr %2, align 8
  call void @llvm.lifetime.start.p0(i64 4, ptr %3) #7
  call void @SDL_LockJoysticks_REAL()
  store i32 0, ptr %3, align 4
  br label %5

5:                                                ; preds = %26, %1
  %6 = load i32, ptr %3, align 4
  %7 = load ptr, ptr %2, align 8
  %8 = getelementptr inbounds nuw %struct.SDL_HIDAPI_Device, ptr %7, i32 0, i32 24
  %9 = load i32, ptr %8, align 4
  %10 = icmp slt i32 %6, %9
  br i1 %10, label %11, label %29

11:                                               ; preds = %5
  call void @llvm.lifetime.start.p0(i64 8, ptr %4) #7
  %12 = load ptr, ptr %2, align 8
  %13 = getelementptr inbounds nuw %struct.SDL_HIDAPI_Device, ptr %12, i32 0, i32 25
  %14 = load ptr, ptr %13, align 8
  %15 = load i32, ptr %3, align 4
  %16 = sext i32 %15 to i64
  %17 = getelementptr inbounds i32, ptr %14, i64 %16
  %18 = load i32, ptr %17, align 4
  %19 = call ptr @SDL_GetJoystickFromID_REAL(i32 noundef %18)
  store ptr %19, ptr %4, align 8
  %20 = load ptr, ptr %4, align 8
  %21 = icmp ne ptr %20, null
  br i1 %21, label %22, label %25

22:                                               ; preds = %11
  %23 = load ptr, ptr %2, align 8
  %24 = load ptr, ptr %4, align 8
  call void @HIDAPI_UpdateJoystickProperties(ptr noundef %23, ptr noundef %24)
  br label %25

25:                                               ; preds = %22, %11
  call void @llvm.lifetime.end.p0(i64 8, ptr %4) #7
  br label %26

26:                                               ; preds = %25
  %27 = load i32, ptr %3, align 4
  %28 = add nsw i32 %27, 1
  store i32 %28, ptr %3, align 4
  br label %5, !llvm.loop !18

29:                                               ; preds = %5
  call void @SDL_UnlockJoysticks_REAL()
  call void @llvm.lifetime.end.p0(i64 4, ptr %3) #7
  ret void
}