; Function Attrs: nounwind uwtable
define hidden void @HIDAPI_UpdateDeviceProperties(ptr noundef %0) local_unnamed_addr #0 {
  tail call void @SDL_LockJoysticks_REAL() #9
  %2 = getelementptr inbounds nuw i8, ptr %0, i64 140
  %3 = load i32, ptr %2, align 4
  %4 = icmp sgt i32 %3, 0
  br i1 %4, label %.lr.ph, label %._crit_edge

.lr.ph:                                           ; preds = %1
  %5 = getelementptr inbounds nuw i8, ptr %0, i64 144
  %6 = getelementptr inbounds nuw i8, ptr %0, i64 104
  br label %7

7:                                                ; preds = %.lr.ph, %28
  %indvars.iv = phi i64 [ 0, %.lr.ph ], [ %indvars.iv.next, %28 ]
  %8 = load ptr, ptr %5, align 8
  %9 = getelementptr inbounds nuw i32, ptr %8, i64 %indvars.iv
  %10 = load i32, ptr %9, align 4
  %11 = tail call ptr @SDL_GetJoystickFromID_REAL(i32 noundef %10) #9
  %.not = icmp eq ptr %11, null
  br i1 %.not, label %28, label %12

12:                                               ; preds = %7
  %13 = tail call i32 @SDL_GetJoystickProperties_REAL(ptr noundef nonnull %11) #9
  %14 = load ptr, ptr %6, align 8
  %15 = getelementptr inbounds nuw i8, ptr %14, i64 104
  %16 = load ptr, ptr %15, align 8
  %17 = tail call i32 %16(ptr noundef nonnull %0, ptr noundef nonnull %11) #9
  %18 = and i32 %17, 1
  %.not.i = icmp ne i32 %18, 0
  %19 = tail call zeroext i1 @SDL_SetBooleanProperty_REAL(i32 noundef %13, ptr noundef nonnull @.str.7, i1 noundef zeroext %.not.i) #9
  %20 = and i32 %17, 2
  %.not18.i = icmp ne i32 %20, 0
  %21 = tail call zeroext i1 @SDL_SetBooleanProperty_REAL(i32 noundef %13, ptr noundef nonnull @.str.8, i1 noundef zeroext %.not18.i) #9
  %22 = and i32 %17, 4
  %.not19.i = icmp ne i32 %22, 0
  %23 = tail call zeroext i1 @SDL_SetBooleanProperty_REAL(i32 noundef %13, ptr noundef nonnull @.str.9, i1 noundef zeroext %.not19.i) #9
  %24 = and i32 %17, 16
  %.not20.i = icmp ne i32 %24, 0
  %25 = tail call zeroext i1 @SDL_SetBooleanProperty_REAL(i32 noundef %13, ptr noundef nonnull @.str.10, i1 noundef zeroext %.not20.i) #9
  %26 = and i32 %17, 32
  %.not21.i = icmp ne i32 %26, 0
  %27 = tail call zeroext i1 @SDL_SetBooleanProperty_REAL(i32 noundef %13, ptr noundef nonnull @.str.11, i1 noundef zeroext %.not21.i) #9
  br label %28

28:                                               ; preds = %12, %7
  %indvars.iv.next = add nuw nsw i64 %indvars.iv, 1
  %29 = load i32, ptr %2, align 4
  %30 = sext i32 %29 to i64
  %31 = icmp slt i64 %indvars.iv.next, %30
  br i1 %31, label %7, label %._crit_edge, !llvm.loop !18

._crit_edge:                                      ; preds = %28, %1
  tail call void @SDL_UnlockJoysticks_REAL() #9
  ret void
}